Certificate:
    Data:
        Version: 3 (0x2)
        Serial Number: 1 (0x1)
        Signature Algorithm: sha1WithRSAEncryption
        Issuer: C=US, ST=CA, L=SanFrancisco, O=Fort-Funston, CN=Fort-Funston CA/emailAddress=me@myhost.mydomain
        Validity
            Not Before: Sep  1 20:06:11 2011 GMT
            Not After : Aug 29 20:06:11 2021 GMT
        Subject: C=US, ST=CA, L=SanFrancisco, O=Fort-Funston, CN=server/emailAddress=me@myhost.mydomain
        Subject Public Key Info:
            Public Key Algorithm: rsaEncryption
            RSA Public Key: (1024 bit)
                Modulus (1024 bit):
                    00:d9:a9:72:84:12:c8:dc:65:ee:be:e1:c1:dd:05:
                    0d:ef:4a:58:66:81:70:11:37:25:96:36:53:d2:99:
                    3e:42:22:f7:8f:2b:47:11:2e:2c:d9:74:53:4f:f9:
                    13:d7:75:f0:53:e5:d5:4e:71:c5:a5:92:12:df:84:
                    ca:f8:de:0a:05:60:f8:b8:4f:7d:81:3f:ed:03:1b:
                    21:b7:dd:73:c1:29:d4:af:db:b4:87:d7:10:c9:c2:
                    6f:d3:7a:b3:36:41:ed:6f:77:51:0d:2f:61:da:c2:
                    0f:14:b7:aa:7c:ea:89:4c:b8:44:69:4b:0f:4c:4e:
                    70:c1:d6:e4:02:0f:c2:e6:63
                Exponent: 65537 (0x10001)
        X509v3 extensions:
            X509v3 Basic Constraints: 
                CA:FALSE
            Netscape Cert Type: 
                SSL Server
            Netscape Comment: 
                Easy-RSA Generated Server Certificate
            X509v3 Subject Key Identifier: 
                2A:8F:9F:C4:24:37:BE:3B:F7:81:60:4F:43:0C:09:69:CF:3D:D9:80
            X509v3 Authority Key Identifier: 
                keyid:E6:11:2E:B2:AD:A7:7D:67:89:F1:31:F2:27:0E:8F:32:FB:7E:7F:00
                DirName:/C=US/ST=CA/L=SanFrancisco/O=Fort-Funston/CN=Fort-Funston CA/emailAddress=me@myhost.mydomain
                serial:C0:72:5B:CD:85:68:66:01

            X509v3 Extended Key Usage: 
                TLS Web Server Authentication
            X509v3 Key Usage: 
                Digital Signature, Key Encipherment
    Signature Algorithm: sha1WithRSAEncryption
        65:c2:ff:cf:21:39:3b:ac:a8:db:7f:d2:c1:af:c4:29:49:26:
        b2:89:4b:27:3d:a4:77:cc:3b:e7:63:86:0b:8c:20:36:22:d6:
        a1:ec:37:9e:55:ab:6d:b0:bf:44:2f:4d:2d:ae:1b:37:48:0a:
        50:2f:ee:bb:5e:8d:32:5a:5c:cc:c4:6a:8b:db:60:c0:d1:08:
        09:51:78:7c:9a:fb:d2:f7:24:66:ed:36:1c:b2:37:e7:ba:80:
        48:f4:62:a9:c0:15:85:fe:57:50:0e:0b:2c:c1:5a:71:93:d4:
        0e:ab:4c:71:b5:19:ef:08:2d:27:e7:1f:e3:d0:2d:64:63:e4:
        9c:94
-----BEGIN CERTIFICATE-----
MIID0DCCAzmgAwIBAgIBATANBgkqhkiG9w0BAQUFADCBhTELMAkGA1UEBhMCVVMx
CzAJBgNVBAgTAkNBMRUwEwYDVQQHEwxTYW5GcmFuY2lzY28xFTATBgNVBAoTDEZv
cnQtRnVuc3RvbjEYMBYGA1UEAxMPRm9ydC1GdW5zdG9uIENBMSEwHwYJKoZIhvcN
AQkBFhJtZUBteWhvc3QubXlkb21haW4wHhcNMTEwOTAxMjAwNjExWhcNMjEwODI5
MjAwNjExWjB8MQswCQYDVQQGEwJVUzELMAkGA1UECBMCQ0ExFTATBgNVBAcTDFNh
bkZyYW5jaXNjbzEVMBMGA1UEChMMRm9ydC1GdW5zdG9uMQ8wDQYDVQQDEwZzZXJ2
ZXIxITAfBgkqhkiG9w0BCQEWEm1lQG15aG9zdC5teWRvbWFpbjCBnzANBgkqhkiG
9w0BAQEFAAOBjQAwgYkCgYEA2alyhBLI3GXuvuHB3QUN70pYZoFwETclljZT0pk+
QiL3jytHES4s2XRTT/kT13XwU+XVTnHFpZIS34TK+N4KBWD4uE99gT/tAxsht91z
wSnUr9u0h9cQycJv03qzNkHtb3dRDS9h2sIPFLeqfOqJTLhEaUsPTE5wwdbkAg/C
5mMCAwEAAaOCAVYwggFSMAkGA1UdEwQCMAAwEQYJYIZIAYb4QgEBBAQDAgZAMDQG
CWCGSAGG+EIBDQQnFiVFYXN5LVJTQSBHZW5lcmF0ZWQgU2VydmVyIENlcnRpZmlj
YXRlMB0GA1UdDgQWBBQqj5/EJDe+O/eBYE9DDAlpzz3ZgDCBugYDVR0jBIGyMIGv
gBTmES6yrad9Z4nxMfInDo8y+35/AKGBi6SBiDCBhTELMAkGA1UEBhMCVVMxCzAJ
BgNVBAgTAkNBMRUwEwYDVQQHEwxTYW5GcmFuY2lzY28xFTATBgNVBAoTDEZvcnQt
RnVuc3RvbjEYMBYGA1UEAxMPRm9ydC1GdW5zdG9uIENBMSEwHwYJKoZIhvcNAQkB
FhJtZUBteWhvc3QubXlkb21haW6CCQDAclvNhWhmATATBgNVHSUEDDAKBggrBgEF
BQcDATALBgNVHQ8EBAMCBaAwDQYJKoZIhvcNAQEFBQADgYEAZcL/zyE5O6yo23/S
wa/EKUkmsolLJz2kd8w752OGC4wgNiLWoew3nlWrbbC/RC9NLa4bN0gKUC/uu16N
MlpczMRqi9tgwNEICVF4fJr70vckZu02HLI357qASPRiqcAVhf5XUA4LLMFacZPU
DqtMcbUZ7wgtJ+cf49AtZGPknJQ=
-----END CERTIFICATE-----
