Certificate:
    Data:
        Version: 3 (0x2)
        Serial Number: 2 (0x2)
        Signature Algorithm: sha1WithRSAEncryption
        Issuer: C=US, ST=CA, L=SanFrancisco, O=Fort-Funston, CN=Fort-Funston CA/emailAddress=me@myhost.mydomain
        Validity
            Not Before: Sep  1 22:13:56 2011 GMT
            Not After : Aug 29 22:13:56 2021 GMT
        Subject: C=US, ST=CA, L=SanFrancisco, O=Fort-Funston, CN=client/emailAddress=me@myhost.mydomain
        Subject Public Key Info:
            Public Key Algorithm: rsaEncryption
            RSA Public Key: (1024 bit)
                Modulus (1024 bit):
                    00:e0:91:b4:ea:69:52:b7:09:7e:33:7a:83:c6:68:
                    fa:a4:bf:3e:fb:c5:d5:f5:98:df:08:8b:00:c7:71:
                    4f:b7:30:ef:c9:93:41:d5:f6:31:55:01:3b:87:24:
                    34:f8:c6:3b:e4:41:fc:03:0b:34:25:f7:5a:dc:82:
                    33:d1:bd:41:f1:3c:82:dc:bf:87:52:7b:e2:33:46:
                    bb:fc:22:03:c7:b2:a2:53:f4:5e:f3:a1:f5:88:40:
                    38:d0:89:a2:7d:b5:0f:5d:19:0b:77:7c:72:38:7f:
                    1f:ea:7e:2e:32:2a:bd:f5:86:eb:36:81:93:69:07:
                    72:e3:bd:62:72:0b:56:5b:99
                Exponent: 65537 (0x10001)
        X509v3 extensions:
            X509v3 Basic Constraints: 
                CA:FALSE
            Netscape Comment: 
                Easy-RSA Generated Certificate
            X509v3 Subject Key Identifier: 
                23:1F:AD:33:7F:63:6D:06:10:DD:A1:00:1A:07:05:A9:69:99:91:15
            X509v3 Authority Key Identifier: 
                keyid:E6:11:2E:B2:AD:A7:7D:67:89:F1:31:F2:27:0E:8F:32:FB:7E:7F:00
                DirName:/C=US/ST=CA/L=SanFrancisco/O=Fort-Funston/CN=Fort-Funston CA/emailAddress=me@myhost.mydomain
                serial:C0:72:5B:CD:85:68:66:01

            X509v3 Extended Key Usage: 
                TLS Web Client Authentication
            X509v3 Key Usage: 
                Digital Signature
    Signature Algorithm: sha1WithRSAEncryption
        63:46:f5:6e:35:52:c7:0b:e5:dc:e7:cb:db:c5:9f:ff:75:02:
        92:0b:f5:60:e3:11:9b:98:75:01:8f:bb:21:75:03:60:3f:d1:
        ed:fd:f2:22:66:fc:cc:82:70:51:7e:96:93:f0:eb:99:e5:b3:
        82:b5:a5:61:c8:46:69:27:30:b2:8f:65:ba:24:30:36:af:70:
        bd:48:1b:29:78:3a:ba:1a:3a:a1:b2:d4:7b:94:65:c7:de:d8:
        06:21:96:c2:c1:35:d6:2d:a2:9c:08:37:45:87:68:96:81:64:
        e2:f3:69:47:bb:c0:c2:3f:7c:09:a2:b0:6f:21:19:ae:ba:36:
        9a:b5
-----BEGIN CERTIFICATE-----
MIIDtjCCAx+gAwIBAgIBAjANBgkqhkiG9w0BAQUFADCBhTELMAkGA1UEBhMCVVMx
CzAJBgNVBAgTAkNBMRUwEwYDVQQHEwxTYW5GcmFuY2lzY28xFTATBgNVBAoTDEZv
cnQtRnVuc3RvbjEYMBYGA1UEAxMPRm9ydC1GdW5zdG9uIENBMSEwHwYJKoZIhvcN
AQkBFhJtZUBteWhvc3QubXlkb21haW4wHhcNMTEwOTAxMjIxMzU2WhcNMjEwODI5
MjIxMzU2WjB8MQswCQYDVQQGEwJVUzELMAkGA1UECBMCQ0ExFTATBgNVBAcTDFNh
bkZyYW5jaXNjbzEVMBMGA1UEChMMRm9ydC1GdW5zdG9uMQ8wDQYDVQQDEwZjbGll
bnQxITAfBgkqhkiG9w0BCQEWEm1lQG15aG9zdC5teWRvbWFpbjCBnzANBgkqhkiG
9w0BAQEFAAOBjQAwgYkCgYEA4JG06mlStwl+M3qDxmj6pL8++8XV9ZjfCIsAx3FP
tzDvyZNB1fYxVQE7hyQ0+MY75EH8Aws0Jfda3IIz0b1B8TyC3L+HUnviM0a7/CID
x7KiU/Re86H1iEA40ImifbUPXRkLd3xyOH8f6n4uMiq99YbrNoGTaQdy471icgtW
W5kCAwEAAaOCATwwggE4MAkGA1UdEwQCMAAwLQYJYIZIAYb4QgENBCAWHkVhc3kt
UlNBIEdlbmVyYXRlZCBDZXJ0aWZpY2F0ZTAdBgNVHQ4EFgQUIx+tM39jbQYQ3aEA
GgcFqWmZkRUwgboGA1UdIwSBsjCBr4AU5hEusq2nfWeJ8THyJw6PMvt+fwChgYuk
gYgwgYUxCzAJBgNVBAYTAlVTMQswCQYDVQQIEwJDQTEVMBMGA1UEBxMMU2FuRnJh
bmNpc2NvMRUwEwYDVQQKEwxGb3J0LUZ1bnN0b24xGDAWBgNVBAMTD0ZvcnQtRnVu
c3RvbiBDQTEhMB8GCSqGSIb3DQEJARYSbWVAbXlob3N0Lm15ZG9tYWluggkAwHJb
zYVoZgEwEwYDVR0lBAwwCgYIKwYBBQUHAwIwCwYDVR0PBAQDAgeAMA0GCSqGSIb3
DQEBBQUAA4GBAGNG9W41UscL5dzny9vFn/91ApIL9WDjEZuYdQGPuyF1A2A/0e39
8iJm/MyCcFF+lpPw65nls4K1pWHIRmknMLKPZbokMDavcL1IGyl4OroaOqGy1HuU
Zcfe2AYhlsLBNdYtopwIN0WHaJaBZOLzaUe7wMI/fAmisG8hGa66Npq1
-----END CERTIFICATE-----
